; ModuleID = '58/981.c'
source_filename = "58/981.c"
target datalayout = "e-m:e-p270:32:32-p271:32:32-p272:64:64-i64:64-f80:128-n8:16:32:64-S128"
target triple = "x86_64-pc-linux-gnu"

@.str = private unnamed_addr constant [3 x i8] c"%d\00", align 1
@.str.1 = private unnamed_addr constant [3 x i8] c"1\0A\00", align 1
@.str.2 = private unnamed_addr constant [3 x i8] c"0\0A\00", align 1

; Function Attrs: noinline nounwind uwtable
define dso_local i32 @main() #0 {
  %1 = alloca i32, align 4
  %2 = alloca i32, align 4
  %3 = alloca i32, align 4
  %4 = alloca i32, align 4
  %5 = alloca i32, align 4
  %6 = alloca i32, align 4
  %7 = alloca i32, align 4
  %8 = alloca [82 x i8], align 16
  store i32 0, i32* %1, align 4
  %9 = call i32 (i8*, ...) @__isoc99_scanf(i8* getelementptr inbounds ([3 x i8], [3 x i8]* @.str, i64 0, i64 0), i32* %2)
  %10 = call i32 @getchar()
  store i32 0, i32* %3, align 4
  br label %11

11:                                               ; preds = %188, %0
  %12 = load i32, i32* %3, align 4
  %13 = load i32, i32* %2, align 4
  %14 = icmp slt i32 %12, %13
  br i1 %14, label %15, label %191

15:                                               ; preds = %11
  %16 = getelementptr inbounds [82 x i8], [82 x i8]* %8, i64 0, i64 0
  %17 = call i32 (i8*, ...) bitcast (i32 (...)* @gets to i32 (i8*, ...)*)(i8* %16)
  store i32 0, i32* %5, align 4
  br label %18

18:                                               ; preds = %184, %15
  %19 = load i32, i32* %5, align 4
  %20 = sext i32 %19 to i64
  %21 = getelementptr inbounds [82 x i8], [82 x i8]* %8, i64 0, i64 %20
  %22 = load i8, i8* %21, align 1
  %23 = sext i8 %22 to i32
  %24 = icmp eq i32 %23, 0
  br i1 %24, label %25, label %27

25:                                               ; preds = %18
  %26 = call i32 (i8*, ...) @printf(i8* getelementptr inbounds ([3 x i8], [3 x i8]* @.str.1, i64 0, i64 0))
  br label %187

27:                                               ; preds = %18
  %28 = load i32, i32* %5, align 4
  %29 = icmp eq i32 %28, 0
  br i1 %29, label %30, label %70

30:                                               ; preds = %27
  store i32 0, i32* %4, align 4
  br label %31

31:                                               ; preds = %61, %30
  %32 = load i32, i32* %4, align 4
  %33 = icmp slt i32 %32, 26
  br i1 %33, label %34, label %64

34:                                               ; preds = %31
  %35 = load i32, i32* %5, align 4
  %36 = sext i32 %35 to i64
  %37 = getelementptr inbounds [82 x i8], [82 x i8]* %8, i64 0, i64 %36
  %38 = load i8, i8* %37, align 1
  %39 = sext i8 %38 to i32
  %40 = load i32, i32* %4, align 4
  %41 = add nsw i32 97, %40
  %42 = icmp eq i32 %39, %41
  br i1 %42, label %59, label %43

43:                                               ; preds = %34
  %44 = load i32, i32* %5, align 4
  %45 = sext i32 %44 to i64
  %46 = getelementptr inbounds [82 x i8], [82 x i8]* %8, i64 0, i64 %45
  %47 = load i8, i8* %46, align 1
  %48 = sext i8 %47 to i32
  %49 = load i32, i32* %4, align 4
  %50 = add nsw i32 65, %49
  %51 = icmp eq i32 %48, %50
  br i1 %51, label %59, label %52

52:                                               ; preds = %43
  %53 = load i32, i32* %5, align 4
  %54 = sext i32 %53 to i64
  %55 = getelementptr inbounds [82 x i8], [82 x i8]* %8, i64 0, i64 %54
  %56 = load i8, i8* %55, align 1
  %57 = sext i8 %56 to i32
  %58 = icmp eq i32 %57, 95
  br i1 %58, label %59, label %60

59:                                               ; preds = %52, %43, %34
  br label %64

60:                                               ; preds = %52
  br label %61

61:                                               ; preds = %60
  %62 = load i32, i32* %4, align 4
  %63 = add nsw i32 %62, 1
  store i32 %63, i32* %4, align 4
  br label %31

64:                                               ; preds = %59, %31
  %65 = load i32, i32* %4, align 4
  %66 = icmp eq i32 %65, 26
  br i1 %66, label %67, label %69

67:                                               ; preds = %64
  %68 = call i32 (i8*, ...) @printf(i8* getelementptr inbounds ([3 x i8], [3 x i8]* @.str.2, i64 0, i64 0))
  br label %187

69:                                               ; preds = %64
  br label %70

70:                                               ; preds = %69, %27
  %71 = load i32, i32* %5, align 4
  %72 = icmp ne i32 %71, 0
  br i1 %72, label %73, label %183

73:                                               ; preds = %70
  store i32 0, i32* %4, align 4
  br label %74

74:                                               ; preds = %174, %73
  %75 = load i32, i32* %4, align 4
  %76 = icmp slt i32 %75, 26
  br i1 %76, label %77, label %177

77:                                               ; preds = %74
  %78 = load i32, i32* %5, align 4
  %79 = sext i32 %78 to i64
  %80 = getelementptr inbounds [82 x i8], [82 x i8]* %8, i64 0, i64 %79
  %81 = load i8, i8* %80, align 1
  %82 = sext i8 %81 to i32
  %83 = load i32, i32* %4, align 4
  %84 = add nsw i32 97, %83
  %85 = icmp eq i32 %82, %84
  br i1 %85, label %172, label %86

86:                                               ; preds = %77
  %87 = load i32, i32* %5, align 4
  %88 = sext i32 %87 to i64
  %89 = getelementptr inbounds [82 x i8], [82 x i8]* %8, i64 0, i64 %88
  %90 = load i8, i8* %89, align 1
  %91 = sext i8 %90 to i32
  %92 = load i32, i32* %4, align 4
  %93 = add nsw i32 65, %92
  %94 = icmp eq i32 %91, %93
  br i1 %94, label %172, label %95

95:                                               ; preds = %86
  %96 = load i32, i32* %5, align 4
  %97 = sext i32 %96 to i64
  %98 = getelementptr inbounds [82 x i8], [82 x i8]* %8, i64 0, i64 %97
  %99 = load i8, i8* %98, align 1
  %100 = sext i8 %99 to i32
  %101 = icmp eq i32 %100, 95
  br i1 %101, label %172, label %102

102:                                              ; preds = %95
  %103 = load i32, i32* %5, align 4
  %104 = sext i32 %103 to i64
  %105 = getelementptr inbounds [82 x i8], [82 x i8]* %8, i64 0, i64 %104
  %106 = load i8, i8* %105, align 1
  %107 = sext i8 %106 to i32
  %108 = icmp eq i32 %107, 48
  br i1 %108, label %172, label %109

109:                                              ; preds = %102
  %110 = load i32, i32* %5, align 4
  %111 = sext i32 %110 to i64
  %112 = getelementptr inbounds [82 x i8], [82 x i8]* %8, i64 0, i64 %111
  %113 = load i8, i8* %112, align 1
  %114 = sext i8 %113 to i32
  %115 = icmp eq i32 %114, 49
  br i1 %115, label %172, label %116

116:                                              ; preds = %109
  %117 = load i32, i32* %5, align 4
  %118 = sext i32 %117 to i64
  %119 = getelementptr inbounds [82 x i8], [82 x i8]* %8, i64 0, i64 %118
  %120 = load i8, i8* %119, align 1
  %121 = sext i8 %120 to i32
  %122 = icmp eq i32 %121, 50
  br i1 %122, label %172, label %123

123:                                              ; preds = %116
  %124 = load i32, i32* %5, align 4
  %125 = sext i32 %124 to i64
  %126 = getelementptr inbounds [82 x i8], [82 x i8]* %8, i64 0, i64 %125
  %127 = load i8, i8* %126, align 1
  %128 = sext i8 %127 to i32
  %129 = icmp eq i32 %128, 51
  br i1 %129, label %172, label %130

130:                                              ; preds = %123
  %131 = load i32, i32* %5, align 4
  %132 = sext i32 %131 to i64
  %133 = getelementptr inbounds [82 x i8], [82 x i8]* %8, i64 0, i64 %132
  %134 = load i8, i8* %133, align 1
  %135 = sext i8 %134 to i32
  %136 = icmp eq i32 %135, 52
  br i1 %136, label %172, label %137

137:                                              ; preds = %130
  %138 = load i32, i32* %5, align 4
  %139 = sext i32 %138 to i64
  %140 = getelementptr inbounds [82 x i8], [82 x i8]* %8, i64 0, i64 %139
  %141 = load i8, i8* %140, align 1
  %142 = sext i8 %141 to i32
  %143 = icmp eq i32 %142, 53
  br i1 %143, label %172, label %144

144:                                              ; preds = %137
  %145 = load i32, i32* %5, align 4
  %146 = sext i32 %145 to i64
  %147 = getelementptr inbounds [82 x i8], [82 x i8]* %8, i64 0, i64 %146
  %148 = load i8, i8* %147, align 1
  %149 = sext i8 %148 to i32
  %150 = icmp eq i32 %149, 54
  br i1 %150, label %172, label %151

151:                                              ; preds = %144
  %152 = load i32, i32* %5, align 4
  %153 = sext i32 %152 to i64
  %154 = getelementptr inbounds [82 x i8], [82 x i8]* %8, i64 0, i64 %153
  %155 = load i8, i8* %154, align 1
  %156 = sext i8 %155 to i32
  %157 = icmp eq i32 %156, 55
  br i1 %157, label %172, label %158

158:                                              ; preds = %151
  %159 = load i32, i32* %5, align 4
  %160 = sext i32 %159 to i64
  %161 = getelementptr inbounds [82 x i8], [82 x i8]* %8, i64 0, i64 %160
  %162 = load i8, i8* %161, align 1
  %163 = sext i8 %162 to i32
  %164 = icmp eq i32 %163, 56
  br i1 %164, label %172, label %165

165:                                              ; preds = %158
  %166 = load i32, i32* %5, align 4
  %167 = sext i32 %166 to i64
  %168 = getelementptr inbounds [82 x i8], [82 x i8]* %8, i64 0, i64 %167
  %169 = load i8, i8* %168, align 1
  %170 = sext i8 %169 to i32
  %171 = icmp eq i32 %170, 57
  br i1 %171, label %172, label %173

172:                                              ; preds = %165, %158, %151, %144, %137, %130, %123, %116, %109, %102, %95, %86, %77
  br label %177

173:                                              ; preds = %165
  br label %174

174:                                              ; preds = %173
  %175 = load i32, i32* %4, align 4
  %176 = add nsw i32 %175, 1
  store i32 %176, i32* %4, align 4
  br label %74

177:                                              ; preds = %172, %74
  %178 = load i32, i32* %4, align 4
  %179 = icmp eq i32 %178, 26
  br i1 %179, label %180, label %182

180:                                              ; preds = %177
  %181 = call i32 (i8*, ...) @printf(i8* getelementptr inbounds ([3 x i8], [3 x i8]* @.str.2, i64 0, i64 0))
  br label %187

182:                                              ; preds = %177
  br label %183

183:                                              ; preds = %182, %70
  br label %184

184:                                              ; preds = %183
  %185 = load i32, i32* %5, align 4
  %186 = add nsw i32 %185, 1
  store i32 %186, i32* %5, align 4
  br label %18

187:                                              ; preds = %180, %67, %25
  br label %188

188:                                              ; preds = %187
  %189 = load i32, i32* %3, align 4
  %190 = add nsw i32 %189, 1
  store i32 %190, i32* %3, align 4
  br label %11

191:                                              ; preds = %11
  %192 = call i32 @getchar()
  %193 = call i32 @getchar()
  %194 = call i32 @getchar()
  %195 = call i32 @getchar()
  %196 = call i32 @getchar()
  %197 = load i32, i32* %1, align 4
  ret i32 %197
}

declare dso_local i32 @__isoc99_scanf(i8*, ...) #1

declare dso_local i32 @getchar() #1

declare dso_local i32 @gets(...) #1

declare dso_local i32 @printf(i8*, ...) #1


!llvm.module.flags = !{!0}
!llvm.ident = !{!1}

!0 = !{i32 1, !"wchar_size", i32 4}
!1 = !{!"clang version 10.0.0-4ubuntu1 "}
